(lp0
S'leaf2.jpg'
p1
aF1.1428571428571428
aF0.6198751822157434
aF0.942412909481266
acnumpy.core.multiarray
scalar
p2
(cnumpy
dtype
p3
(S'f8'
p4
I0
I1
tp5
Rp6
(I3
S'<'
p7
NNNI-1
I-1
I0
tp8
bS'\xeaVOj\xbfDg@'
p9
tp10
Rp11
a.