(lp0
S'leaf5.jpg'
p1
aF1.471502590673575
aF0.7230898343428447
aF0.9706364949917958
acnumpy.core.multiarray
scalar
p2
(cnumpy
dtype
p3
(S'f8'
p4
I0
I1
tp5
Rp6
(I3
S'<'
p7
NNNI-1
I-1
I0
tp8
bS'-\x96\x86\x05\x83\x14l@'
p9
tp10
Rp11
a.