(lp0
S'leaf1.jpg'
p1
aF0.9902912621359223
aF0.5217256805634876
aF0.7004344770302217
acnumpy.core.multiarray
scalar
p2
(cnumpy
dtype
p3
(S'f8'
p4
I0
I1
tp5
Rp6
(I3
S'<'
p7
NNNI-1
I-1
I0
tp8
bS'\xf6\xbe\xd5\x99\x90\xe2d@'
p9
tp10
Rp11
a.