(lp0
S'leaf3.jpg'
p1
aF1.2538461538461538
aF0.5266425462744481
aF0.8002135262505826
acnumpy.core.multiarray
scalar
p2
(cnumpy
dtype
p3
(S'f8'
p4
I0
I1
tp5
Rp6
(I3
S'<'
p7
NNNI-1
I-1
I0
tp8
bS'\xaaH\x063\xa1Yv@'
p9
tp10
Rp11
a.