(lp0
S'leaf4.jpg'
p1
aF0.8201438848920863
aF0.46742868862804493
aF0.7619751816369832
acnumpy.core.multiarray
scalar
p2
(cnumpy
dtype
p3
(S'f8'
p4
I0
I1
tp5
Rp6
(I3
S'<'
p7
NNNI-1
I-1
I0
tp8
bS'\x0b\x03E\xcb)Gh@'
p9
tp10
Rp11
a.